; Function Attrs: alwaysinline norecurse nounwind ssp uwtable
define internal void @"_ZN6open3d4core15ParallelForCPU_IZZZNS_1t8geometry6kernel9transform19TransformNormalsCPUERKNS0_6TensorERS6_ENK3$_0clEvENKUlvE0_clEvEUllE_EEvRKNS0_6DeviceElRKT_.omp_outlined"(ptr noalias noundef readonly captures(none) %0, ptr noalias readnone captures(none) %1, ptr noundef nonnull readonly align 8 captures(none) dereferenceable(8) %2, ptr noundef nonnull readonly align 8 captures(none) dereferenceable(16) %3) #23 personality ptr @__gxx_personality_v0 {
  %5 = alloca i64, align 8
  %6 = alloca i64, align 8
  %7 = alloca i64, align 8
  %8 = alloca i32, align 4
  %9 = load i64, ptr %2, align 8, !tbaa !9
  %10 = icmp sgt i64 %9, 0
  br i1 %10, label %11, label %52

11:                                               ; preds = %4
  %12 = add nsw i64 %9, -1
  call void @llvm.lifetime.start.p0(i64 8, ptr nonnull %5) #24
  store i64 0, ptr %5, align 8, !tbaa !9
  call void @llvm.lifetime.start.p0(i64 8, ptr nonnull %6) #24
  store i64 %12, ptr %6, align 8, !tbaa !9
  call void @llvm.lifetime.start.p0(i64 8, ptr nonnull %7) #24
  store i64 1, ptr %7, align 8, !tbaa !9
  call void @llvm.lifetime.start.p0(i64 4, ptr nonnull %8) #24
  store i32 0, ptr %8, align 4, !tbaa !146
  %13 = load i32, ptr %0, align 4, !tbaa !146
  call void @__kmpc_for_static_init_8(ptr nonnull @1, i32 %13, i32 34, ptr nonnull %8, ptr nonnull %5, ptr nonnull %6, ptr nonnull %7, i64 1, i64 1)
  %14 = load i64, ptr %6, align 8, !tbaa !9
  %15 = call i64 @llvm.smin.i64(i64 %14, i64 %12)
  store i64 %15, ptr %6, align 8, !tbaa !9
  %16 = load i64, ptr %5, align 8, !tbaa !9
  %.not14 = icmp sgt i64 %16, %15
  br i1 %.not14, label %._crit_edge, label %.lr.ph

.lr.ph:                                           ; preds = %11
  %.val = load ptr, ptr %3, align 8, !tbaa !644
  %17 = getelementptr inbounds nuw i8, ptr %3, i64 8
  %.val13 = load ptr, ptr %17, align 8, !tbaa !646
  %18 = getelementptr inbounds nuw i8, ptr %.val, i64 8
  %19 = getelementptr inbounds nuw i8, ptr %.val, i64 16
  %20 = getelementptr inbounds nuw i8, ptr %.val, i64 32
  %21 = getelementptr inbounds nuw i8, ptr %.val, i64 40
  %22 = getelementptr inbounds nuw i8, ptr %.val, i64 48
  %23 = getelementptr inbounds nuw i8, ptr %.val, i64 64
  %24 = getelementptr inbounds nuw i8, ptr %.val, i64 72
  %25 = getelementptr inbounds nuw i8, ptr %.val, i64 80
  br label %26

26:                                               ; preds = %.lr.ph, %26
  %.015 = phi i64 [ %16, %.lr.ph ], [ %51, %26 ]
  %.idx.i = mul nsw i64 %.015, 24
  %27 = getelementptr inbounds i8, ptr %.val13, i64 %.idx.i
  %28 = load double, ptr %.val, align 8, !tbaa !639
  %29 = load double, ptr %27, align 8, !tbaa !639
  %30 = load double, ptr %18, align 8, !tbaa !639
  %31 = getelementptr inbounds nuw i8, ptr %27, i64 8
  %32 = load double, ptr %31, align 8, !tbaa !639
  %33 = fmul double %30, %32
  %34 = call double @llvm.fmuladd.f64(double %28, double %29, double %33)
  %35 = load double, ptr %19, align 8, !tbaa !639
  %36 = getelementptr inbounds nuw i8, ptr %27, i64 16
  %37 = load double, ptr %36, align 8, !tbaa !639
  %38 = call double @llvm.fmuladd.f64(double %35, double %37, double %34)
  %39 = load double, ptr %20, align 8, !tbaa !639
  %40 = load double, ptr %21, align 8, !tbaa !639
  %41 = fmul double %32, %40
  %42 = call double @llvm.fmuladd.f64(double %39, double %29, double %41)
  %43 = load double, ptr %22, align 8, !tbaa !639
  %44 = call double @llvm.fmuladd.f64(double %43, double %37, double %42)
  %45 = load double, ptr %23, align 8, !tbaa !639
  %46 = load double, ptr %24, align 8, !tbaa !639
  %47 = fmul double %32, %46
  %48 = call double @llvm.fmuladd.f64(double %45, double %29, double %47)
  %49 = load double, ptr %25, align 8, !tbaa !639
  %50 = call double @llvm.fmuladd.f64(double %49, double %37, double %48)
  store double %38, ptr %27, align 8, !tbaa !639
  store double %44, ptr %31, align 8, !tbaa !639
  store double %50, ptr %36, align 8, !tbaa !639
  %51 = add i64 %.015, 1
  %exitcond.not = icmp eq i64 %.015, %15
  br i1 %exitcond.not, label %._crit_edge, label %26

._crit_edge:                                      ; preds = %26, %11
  call void @__kmpc_for_static_fini(ptr nonnull @1, i32 %13)
  call void @llvm.lifetime.end.p0(i64 4, ptr nonnull %8) #24
  call void @llvm.lifetime.end.p0(i64 8, ptr nonnull %7) #24
  call void @llvm.lifetime.end.p0(i64 8, ptr nonnull %6) #24
  call void @llvm.lifetime.end.p0(i64 8, ptr nonnull %5) #24
  br label %52

52:                                               ; preds = %._crit_edge, %4
  ret void
}